target datalayout = "e-m:e-p270:32:32-p271:32:32-p272:64:64-i64:64-i128:128-f80:128-n8:16:32:64-S128"
target triple = "x86_64-pc-linux-gnu"

%struct.topoinfo_tree = type { i32, ptr }
%struct.topo_info = type { i16, i32, ptr, ptr, ptr }

; Function Attrs: nounwind uwtable
define dso_local i32 @topology_p_topology_pack(ptr noundef %0, ptr noundef %1, i16 noundef zeroext %2) #0 {
  %4 = alloca ptr, align 8
  %5 = alloca ptr, align 8
  %6 = alloca i16, align 2
  %7 = alloca i32, align 4
  %8 = alloca ptr, align 8
  %9 = alloca i32, align 4
  %10 = alloca i32, align 4
  %11 = alloca i32, align 4
  store ptr %0, ptr %4, align 8
  store ptr %1, ptr %5, align 8
  store i16 %2, ptr %6, align 2
  call void @llvm.lifetime.start.p0(i64 4, ptr %7) #10
  call void @llvm.lifetime.start.p0(i64 8, ptr %8) #10
  %12 = load ptr, ptr %4, align 8
  store ptr %12, ptr %8, align 8
  %13 = load ptr, ptr %8, align 8
  %14 = getelementptr inbounds nuw %struct.topoinfo_tree, ptr %13, i32 0, i32 0
  %15 = load i32, ptr %14, align 8
  %16 = load ptr, ptr %5, align 8
  call void @slurm_pack32(i32 noundef %15, ptr noundef %16)
  store i32 0, ptr %7, align 4
  br label %17

17:                                               ; preds = %147, %3
  %18 = load i32, ptr %7, align 4
  %19 = load ptr, ptr %8, align 8
  %20 = getelementptr inbounds nuw %struct.topoinfo_tree, ptr %19, i32 0, i32 0
  %21 = load i32, ptr %20, align 8
  %22 = icmp ult i32 %18, %21
  br i1 %22, label %23, label %150

23:                                               ; preds = %17
  %24 = load ptr, ptr %8, align 8
  %25 = getelementptr inbounds nuw %struct.topoinfo_tree, ptr %24, i32 0, i32 1
  %26 = load ptr, ptr %25, align 8
  %27 = load i32, ptr %7, align 4
  %28 = sext i32 %27 to i64
  %29 = getelementptr inbounds %struct.topo_info, ptr %26, i64 %28
  %30 = getelementptr inbounds nuw %struct.topo_info, ptr %29, i32 0, i32 0
  %31 = load i16, ptr %30, align 8
  %32 = load ptr, ptr %5, align 8
  call void @slurm_pack16(i16 noundef zeroext %31, ptr noundef %32)
  %33 = load ptr, ptr %8, align 8
  %34 = getelementptr inbounds nuw %struct.topoinfo_tree, ptr %33, i32 0, i32 1
  %35 = load ptr, ptr %34, align 8
  %36 = load i32, ptr %7, align 4
  %37 = sext i32 %36 to i64
  %38 = getelementptr inbounds %struct.topo_info, ptr %35, i64 %37
  %39 = getelementptr inbounds nuw %struct.topo_info, ptr %38, i32 0, i32 1
  %40 = load i32, ptr %39, align 4
  %41 = load ptr, ptr %5, align 8
  call void @slurm_pack32(i32 noundef %40, ptr noundef %41)
  br label %42

42:                                               ; preds = %23
  call void @llvm.lifetime.start.p0(i64 4, ptr %9) #10
  store i32 0, ptr %9, align 4
  %43 = load ptr, ptr %8, align 8
  %44 = getelementptr inbounds nuw %struct.topoinfo_tree, ptr %43, i32 0, i32 1
  %45 = load ptr, ptr %44, align 8
  %46 = load i32, ptr %7, align 4
  %47 = sext i32 %46 to i64
  %48 = getelementptr inbounds %struct.topo_info, ptr %45, i64 %47
  %49 = getelementptr inbounds nuw %struct.topo_info, ptr %48, i32 0, i32 2
  %50 = load ptr, ptr %49, align 8
  %51 = icmp ne ptr %50, null
  br i1 %51, label %52, label %64

52:                                               ; preds = %42
  %53 = load ptr, ptr %8, align 8
  %54 = getelementptr inbounds nuw %struct.topoinfo_tree, ptr %53, i32 0, i32 1
  %55 = load ptr, ptr %54, align 8
  %56 = load i32, ptr %7, align 4
  %57 = sext i32 %56 to i64
  %58 = getelementptr inbounds %struct.topo_info, ptr %55, i64 %57
  %59 = getelementptr inbounds nuw %struct.topo_info, ptr %58, i32 0, i32 2
  %60 = load ptr, ptr %59, align 8
  %61 = call i64 @strlen(ptr noundef %60) #13
  %62 = trunc i64 %61 to i32
  %63 = add i32 %62, 1
  store i32 %63, ptr %9, align 4
  br label %64

64:                                               ; preds = %52, %42
  %65 = load ptr, ptr %8, align 8
  %66 = getelementptr inbounds nuw %struct.topoinfo_tree, ptr %65, i32 0, i32 1
  %67 = load ptr, ptr %66, align 8
  %68 = load i32, ptr %7, align 4
  %69 = sext i32 %68 to i64
  %70 = getelementptr inbounds %struct.topo_info, ptr %67, i64 %69
  %71 = getelementptr inbounds nuw %struct.topo_info, ptr %70, i32 0, i32 2
  %72 = load ptr, ptr %71, align 8
  %73 = load i32, ptr %9, align 4
  %74 = load ptr, ptr %5, align 8
  call void @slurm_packmem(ptr noundef %72, i32 noundef %73, ptr noundef %74)
  call void @llvm.lifetime.end.p0(i64 4, ptr %9) #10
  br label %75

75:                                               ; preds = %64
  br label %76

76:                                               ; preds = %75
  br label %77

77:                                               ; preds = %76
  call void @llvm.lifetime.start.p0(i64 4, ptr %10) #10
  store i32 0, ptr %10, align 4
  %78 = load ptr, ptr %8, align 8
  %79 = getelementptr inbounds nuw %struct.topoinfo_tree, ptr %78, i32 0, i32 1
  %80 = load ptr, ptr %79, align 8
  %81 = load i32, ptr %7, align 4
  %82 = sext i32 %81 to i64
  %83 = getelementptr inbounds %struct.topo_info, ptr %80, i64 %82
  %84 = getelementptr inbounds nuw %struct.topo_info, ptr %83, i32 0, i32 3
  %85 = load ptr, ptr %84, align 8
  %86 = icmp ne ptr %85, null
  br i1 %86, label %87, label %99

87:                                               ; preds = %77
  %88 = load ptr, ptr %8, align 8
  %89 = getelementptr inbounds nuw %struct.topoinfo_tree, ptr %88, i32 0, i32 1
  %90 = load ptr, ptr %89, align 8
  %91 = load i32, ptr %7, align 4
  %92 = sext i32 %91 to i64
  %93 = getelementptr inbounds %struct.topo_info, ptr %90, i64 %92
  %94 = getelementptr inbounds nuw %struct.topo_info, ptr %93, i32 0, i32 3
  %95 = load ptr, ptr %94, align 8
  %96 = call i64 @strlen(ptr noundef %95) #13
  %97 = trunc i64 %96 to i32
  %98 = add i32 %97, 1
  store i32 %98, ptr %10, align 4
  br label %99

99:                                               ; preds = %87, %77
  %100 = load ptr, ptr %8, align 8
  %101 = getelementptr inbounds nuw %struct.topoinfo_tree, ptr %100, i32 0, i32 1
  %102 = load ptr, ptr %101, align 8
  %103 = load i32, ptr %7, align 4
  %104 = sext i32 %103 to i64
  %105 = getelementptr inbounds %struct.topo_info, ptr %102, i64 %104
  %106 = getelementptr inbounds nuw %struct.topo_info, ptr %105, i32 0, i32 3
  %107 = load ptr, ptr %106, align 8
  %108 = load i32, ptr %10, align 4
  %109 = load ptr, ptr %5, align 8
  call void @slurm_packmem(ptr noundef %107, i32 noundef %108, ptr noundef %109)
  call void @llvm.lifetime.end.p0(i64 4, ptr %10) #10
  br label %110

110:                                              ; preds = %99
  br label %111

111:                                              ; preds = %110
  br label %112

112:                                              ; preds = %111
  call void @llvm.lifetime.start.p0(i64 4, ptr %11) #10
  store i32 0, ptr %11, align 4
  %113 = load ptr, ptr %8, align 8
  %114 = getelementptr inbounds nuw %struct.topoinfo_tree, ptr %113, i32 0, i32 1
  %115 = load ptr, ptr %114, align 8
  %116 = load i32, ptr %7, align 4
  %117 = sext i32 %116 to i64
  %118 = getelementptr inbounds %struct.topo_info, ptr %115, i64 %117
  %119 = getelementptr inbounds nuw %struct.topo_info, ptr %118, i32 0, i32 4
  %120 = load ptr, ptr %119, align 8
  %121 = icmp ne ptr %120, null
  br i1 %121, label %122, label %134

122:                                              ; preds = %112
  %123 = load ptr, ptr %8, align 8
  %124 = getelementptr inbounds nuw %struct.topoinfo_tree, ptr %123, i32 0, i32 1
  %125 = load ptr, ptr %124, align 8
  %126 = load i32, ptr %7, align 4
  %127 = sext i32 %126 to i64
  %128 = getelementptr inbounds %struct.topo_info, ptr %125, i64 %127
  %129 = getelementptr inbounds nuw %struct.topo_info, ptr %128, i32 0, i32 4
  %130 = load ptr, ptr %129, align 8
  %131 = call i64 @strlen(ptr noundef %130) #13
  %132 = trunc i64 %131 to i32
  %133 = add i32 %132, 1
  store i32 %133, ptr %11, align 4
  br label %134

134:                                              ; preds = %122, %112
  %135 = load ptr, ptr %8, align 8
  %136 = getelementptr inbounds nuw %struct.topoinfo_tree, ptr %135, i32 0, i32 1
  %137 = load ptr, ptr %136, align 8
  %138 = load i32, ptr %7, align 4
  %139 = sext i32 %138 to i64
  %140 = getelementptr inbounds %struct.topo_info, ptr %137, i64 %139
  %141 = getelementptr inbounds nuw %struct.topo_info, ptr %140, i32 0, i32 4
  %142 = load ptr, ptr %141, align 8
  %143 = load i32, ptr %11, align 4
  %144 = load ptr, ptr %5, align 8
  call void @slurm_packmem(ptr noundef %142, i32 noundef %143, ptr noundef %144)
  call void @llvm.lifetime.end.p0(i64 4, ptr %11) #10
  br label %145

145:                                              ; preds = %134
  br label %146

146:                                              ; preds = %145
  br label %147

147:                                              ; preds = %146
  %148 = load i32, ptr %7, align 4
  %149 = add nsw i32 %148, 1
  store i32 %149, ptr %7, align 4
  br label %17, !llvm.loop !26

150:                                              ; preds = %17
  call void @llvm.lifetime.end.p0(i64 8, ptr %8) #10
  call void @llvm.lifetime.end.p0(i64 4, ptr %7) #10
  ret i32 0
}