; Function Attrs: nounwind uwtable
define dso_local noundef i32 @topology_p_topology_pack(ptr noundef readonly captures(none) %0, ptr noundef %1, i16 noundef zeroext %2) local_unnamed_addr #0 {
  %4 = load i32, ptr %0, align 8
  tail call void @slurm_pack32(i32 noundef %4, ptr noundef %1) #13
  %5 = load i32, ptr %0, align 8
  %.not44 = icmp eq i32 %5, 0
  br i1 %.not44, label %._crit_edge, label %.lr.ph

.lr.ph:                                           ; preds = %3
  %6 = getelementptr inbounds nuw i8, ptr %0, i64 8
  br label %7

7:                                                ; preds = %.lr.ph, %37
  %indvars.iv = phi i64 [ 0, %.lr.ph ], [ %indvars.iv.next, %37 ]
  %8 = load ptr, ptr %6, align 8
  %9 = getelementptr inbounds nuw %struct.topo_info, ptr %8, i64 %indvars.iv
  %10 = load i16, ptr %9, align 8
  tail call void @slurm_pack16(i16 noundef zeroext %10, ptr noundef %1) #13
  %11 = load ptr, ptr %6, align 8
  %12 = getelementptr inbounds nuw %struct.topo_info, ptr %11, i64 %indvars.iv, i32 1
  %13 = load i32, ptr %12, align 4
  tail call void @slurm_pack32(i32 noundef %13, ptr noundef %1) #13
  %14 = load ptr, ptr %6, align 8
  %15 = getelementptr inbounds nuw %struct.topo_info, ptr %14, i64 %indvars.iv, i32 2
  %16 = load ptr, ptr %15, align 8
  %.not = icmp eq ptr %16, null
  br i1 %.not, label %21, label %17

17:                                               ; preds = %7
  %18 = tail call i64 @strlen(ptr noundef nonnull dereferenceable(1) %16) #16
  %19 = trunc i64 %18 to i32
  %20 = add i32 %19, 1
  br label %21

21:                                               ; preds = %17, %7
  %.036 = phi i32 [ %20, %17 ], [ 0, %7 ]
  tail call void @slurm_packmem(ptr noundef %16, i32 noundef %.036, ptr noundef %1) #13
  %22 = load ptr, ptr %6, align 8
  %23 = getelementptr inbounds nuw %struct.topo_info, ptr %22, i64 %indvars.iv, i32 3
  %24 = load ptr, ptr %23, align 8
  %.not41 = icmp eq ptr %24, null
  br i1 %.not41, label %29, label %25

25:                                               ; preds = %21
  %26 = tail call i64 @strlen(ptr noundef nonnull dereferenceable(1) %24) #16
  %27 = trunc i64 %26 to i32
  %28 = add i32 %27, 1
  br label %29

29:                                               ; preds = %25, %21
  %.035 = phi i32 [ %28, %25 ], [ 0, %21 ]
  tail call void @slurm_packmem(ptr noundef %24, i32 noundef %.035, ptr noundef %1) #13
  %30 = load ptr, ptr %6, align 8
  %31 = getelementptr inbounds nuw %struct.topo_info, ptr %30, i64 %indvars.iv, i32 4
  %32 = load ptr, ptr %31, align 8
  %.not42 = icmp eq ptr %32, null
  br i1 %.not42, label %37, label %33

33:                                               ; preds = %29
  %34 = tail call i64 @strlen(ptr noundef nonnull dereferenceable(1) %32) #16
  %35 = trunc i64 %34 to i32
  %36 = add i32 %35, 1
  br label %37

37:                                               ; preds = %33, %29
  %.0 = phi i32 [ %36, %33 ], [ 0, %29 ]
  tail call void @slurm_packmem(ptr noundef %32, i32 noundef %.0, ptr noundef %1) #13
  %indvars.iv.next = add nuw nsw i64 %indvars.iv, 1
  %38 = load i32, ptr %0, align 8
  %39 = zext i32 %38 to i64
  %40 = icmp samesign ult i64 %indvars.iv.next, %39
  br i1 %40, label %7, label %._crit_edge, !llvm.loop !27

._crit_edge:                                      ; preds = %37, %3
  ret i32 0
}